target datalayout = "e-m:e-p270:32:32-p271:32:32-p272:64:64-i64:64-i128:128-f80:128-n8:16:32:64-S128"
target triple = "x86_64-pc-linux-gnu"

%union.SourceSpan = type { i64 }
%struct.ParseContext_ = type { %struct.TokenData, i32, %union.SourceSpan, %union.SourceSpan, ptr, %struct.Lexer }
%struct.TokenData = type { ptr, i64, %union.anon.86 }
%union.anon.86 = type { %struct.anon.89 }
%struct.anon.89 = type { %struct.Int128_, i8 }
%struct.Int128_ = type { i64, i64 }
%struct.Lexer = type { ptr, ptr, ptr, ptr, i32, i32, ptr, ptr, ptr, %struct.TokenData, %union.SourceSpan, i32, i32 }
%struct.Decl_ = type { ptr, ptr, %union.SourceSpan, i64, %union.anon, i32, %union.anon.1, i64, ptr, ptr, ptr, %union.anon.2 }
%union.anon = type { ptr }
%union.anon.1 = type { i16 }
%union.anon.2 = type { %struct.FuncDecl }
%struct.FuncDecl = type { i32, [4 x i8], %struct.Signature_, i32, i32, %union.anon.9 }
%struct.Signature_ = type <{ %struct.CalleeAttributes, i16, i8, i32, i32, [4 x i8], ptr }>
%struct.CalleeAttributes = type { i8 }
%union.anon.9 = type { %struct.anon.10 }
%struct.anon.10 = type { i16, %union.anon.11 }
%union.anon.11 = type { ptr }
%struct.VHeader_ = type { i32, i32, [0 x i8] }

; Function Attrs: nounwind uwtable
define internal ptr @vec_new_(i64 noundef %0, i64 noundef %1) #0 {
  %3 = alloca i64, align 8
  %4 = alloca i64, align 8
  %5 = alloca ptr, align 8
  store i64 %0, ptr %3, align 8
  store i64 %1, ptr %4, align 8
  %6 = load i64, ptr %3, align 8
  %7 = load i64, ptr %4, align 8
  %8 = mul i64 %6, %7
  %9 = add i64 %8, 8
  %10 = call ptr @calloc_arena(i64 noundef %9)
  store ptr %10, ptr %5, align 8
  %11 = load i64, ptr %4, align 8
  %12 = trunc i64 %11 to i32
  %13 = load ptr, ptr %5, align 8
  %14 = getelementptr inbounds %struct.VHeader_, ptr %13, i32 0, i32 1
  store i32 %12, ptr %14, align 4
  %15 = load ptr, ptr %5, align 8
  ret ptr %15
}

; Function Attrs: nounwind uwtable
define internal ptr @expand_(ptr noundef %0, i64 noundef %1) #0 {
  %3 = alloca ptr, align 8
  %4 = alloca i64, align 8
  %5 = alloca ptr, align 8
  %6 = alloca ptr, align 8
  %7 = alloca i64, align 8
  store ptr %0, ptr %3, align 8
  store i64 %1, ptr %4, align 8
  %8 = load ptr, ptr %3, align 8
  %9 = icmp ne ptr %8, null
  br i1 %9, label %13, label %10

10:                                               ; preds = %2
  %11 = load i64, ptr %4, align 8
  %12 = call ptr @vec_new_(i64 noundef %11, i64 noundef 8)
  store ptr %12, ptr %5, align 8
  br label %16

13:                                               ; preds = %2
  %14 = load ptr, ptr %3, align 8
  %15 = getelementptr inbounds %struct.VHeader_, ptr %14, i64 -1
  store ptr %15, ptr %5, align 8
  br label %16

16:                                               ; preds = %13, %10
  %17 = load ptr, ptr %5, align 8
  %18 = getelementptr inbounds %struct.VHeader_, ptr %17, i32 0, i32 0
  %19 = load i32, ptr %18, align 4
  %20 = load ptr, ptr %5, align 8
  %21 = getelementptr inbounds %struct.VHeader_, ptr %20, i32 0, i32 1
  %22 = load i32, ptr %21, align 4
  %23 = icmp eq i32 %19, %22
  br i1 %23, label %24, label %49

24:                                               ; preds = %16
  %25 = load i64, ptr %4, align 8
  %26 = load ptr, ptr %5, align 8
  %27 = getelementptr inbounds %struct.VHeader_, ptr %26, i32 0, i32 1
  %28 = load i32, ptr %27, align 4
  %29 = shl i32 %28, 1
  %30 = zext i32 %29 to i64
  %31 = call ptr @vec_new_(i64 noundef %25, i64 noundef %30)
  store ptr %31, ptr %6, align 8
  %32 = load i64, ptr %4, align 8
  %33 = load ptr, ptr %5, align 8
  %34 = getelementptr inbounds %struct.VHeader_, ptr %33, i32 0, i32 1
  %35 = load i32, ptr %34, align 4
  %36 = zext i32 %35 to i64
  %37 = mul i64 %32, %36
  %38 = add i64 %37, 8
  store i64 %38, ptr %7, align 8
  %39 = load ptr, ptr %6, align 8
  %40 = load ptr, ptr %5, align 8
  %41 = load i64, ptr %7, align 8
  call void @llvm.memcpy.p0.p0.i64(ptr align 4 %39, ptr align 4 %40, i64 %41, i1 false)
  %42 = load ptr, ptr %6, align 8
  store ptr %42, ptr %5, align 8
  %43 = load ptr, ptr %5, align 8
  %44 = getelementptr inbounds %struct.VHeader_, ptr %43, i32 0, i32 1
  %45 = load i32, ptr %44, align 4
  %46 = shl i32 %45, 1
  %47 = load ptr, ptr %6, align 8
  %48 = getelementptr inbounds %struct.VHeader_, ptr %47, i32 0, i32 1
  store i32 %46, ptr %48, align 4
  br label %49

49:                                               ; preds = %24, %16
  %50 = load ptr, ptr %5, align 8
  %51 = getelementptr inbounds %struct.VHeader_, ptr %50, i32 0, i32 0
  %52 = load i32, ptr %51, align 4
  %53 = add i32 %52, 1
  store i32 %53, ptr %51, align 4
  %54 = load ptr, ptr %5, align 8
  %55 = getelementptr inbounds %struct.VHeader_, ptr %54, i64 1
  ret ptr %55
}

; Function Attrs: nounwind uwtable
define dso_local void @advance(ptr noundef %0) #0 {
  %2 = alloca ptr, align 8
  %3 = alloca i32, align 4
  %4 = alloca ptr, align 8
  store ptr %0, ptr %4, align 8
  %5 = load ptr, ptr %4, align 8
  store ptr %5, ptr %2, align 8
  store i32 189, ptr %3, align 4
  %6 = load ptr, ptr %2, align 8
  %7 = getelementptr inbounds %struct.ParseContext_, ptr %6, i32 0, i32 1
  %8 = load i32, ptr %7, align 8
  %9 = load i32, ptr %3, align 4
  %10 = icmp eq i32 %8, %9
  br i1 %10, label %11, label %12

11:                                               ; preds = %1
  br label %37

12:                                               ; preds = %1
  %13 = load ptr, ptr %4, align 8
  %14 = getelementptr inbounds %struct.ParseContext_, ptr %13, i32 0, i32 5
  %15 = getelementptr inbounds %struct.Lexer, ptr %14, i32 0, i32 11
  %16 = load i32, ptr %15, align 8
  %17 = load ptr, ptr %4, align 8
  %18 = getelementptr inbounds %struct.ParseContext_, ptr %17, i32 0, i32 1
  store i32 %16, ptr %18, align 8
  %19 = load ptr, ptr %4, align 8
  %20 = getelementptr inbounds %struct.ParseContext_, ptr %19, i32 0, i32 0
  %21 = load ptr, ptr %4, align 8
  %22 = getelementptr inbounds %struct.ParseContext_, ptr %21, i32 0, i32 5
  %23 = getelementptr inbounds %struct.Lexer, ptr %22, i32 0, i32 9
  call void @llvm.memcpy.p0.p0.i64(ptr align 8 %20, ptr align 8 %23, i64 40, i1 false)
  %24 = load ptr, ptr %4, align 8
  %25 = getelementptr inbounds %struct.ParseContext_, ptr %24, i32 0, i32 3
  %26 = load ptr, ptr %4, align 8
  %27 = getelementptr inbounds %struct.ParseContext_, ptr %26, i32 0, i32 2
  call void @llvm.memcpy.p0.p0.i64(ptr align 8 %25, ptr align 8 %27, i64 8, i1 false)
  %28 = load ptr, ptr %4, align 8
  %29 = getelementptr inbounds %struct.ParseContext_, ptr %28, i32 0, i32 2
  %30 = load ptr, ptr %4, align 8
  %31 = getelementptr inbounds %struct.ParseContext_, ptr %30, i32 0, i32 5
  %32 = getelementptr inbounds %struct.Lexer, ptr %31, i32 0, i32 10
  call void @llvm.memcpy.p0.p0.i64(ptr align 8 %29, ptr align 8 %32, i64 8, i1 false)
  %33 = load ptr, ptr %4, align 8
  %34 = getelementptr inbounds %struct.ParseContext_, ptr %33, i32 0, i32 5
  %35 = call zeroext i1 @lexer_next_token(ptr noundef %34)
  br i1 %35, label %37, label %36

36:                                               ; preds = %12
  call void @exit_compiler(i32 noundef 1) #9
  unreachable

37:                                               ; preds = %12, %11
  ret void
}

; Function Attrs: nounwind uwtable
define dso_local ptr @parse_include_file(ptr noundef %0, ptr noundef %1) #0 {
  %3 = alloca i32, align 4
  %4 = alloca ptr, align 8
  %5 = alloca ptr, align 8
  %6 = alloca i32, align 4
  %7 = alloca ptr, align 8
  %8 = alloca ptr, align 8
  %9 = alloca i32, align 4
  %10 = alloca ptr, align 8
  %11 = alloca ptr, align 8
  %12 = alloca ptr, align 8
  %13 = alloca ptr, align 8
  %14 = alloca ptr, align 8
  %15 = alloca i32, align 4
  %16 = alloca i32, align 4
  %17 = alloca ptr, align 8
  %18 = alloca ptr, align 8
  %19 = alloca ptr, align 8
  %20 = alloca ptr, align 8
  %21 = alloca ptr, align 8
  %22 = alloca ptr, align 8
  %23 = alloca i32, align 4
  %24 = alloca ptr, align 8
  %25 = alloca ptr, align 8
  %26 = alloca ptr, align 8
  %27 = alloca %struct.ParseContext_, align 8
  %28 = alloca ptr, align 8
  %29 = alloca %struct.Lexer, align 8
  %30 = alloca ptr, align 8
  %31 = alloca ptr, align 8
  store ptr %0, ptr %25, align 8
  store ptr %1, ptr %26, align 8
  call void @llvm.memset.p0.i64(ptr align 8 %27, i8 0, i64 192, i1 false)
  store ptr %27, ptr %28, align 8
  %32 = load ptr, ptr %26, align 8
  %33 = load ptr, ptr %28, align 8
  %34 = getelementptr inbounds %struct.ParseContext_, ptr %33, i32 0, i32 4
  store ptr %32, ptr %34, align 8
  %35 = getelementptr inbounds %struct.ParseContext_, ptr %27, i32 0, i32 5
  call void @llvm.memset.p0.i64(ptr align 8 %29, i8 0, i64 120, i1 false)
  %36 = getelementptr inbounds %struct.Lexer, ptr %29, i32 0, i32 0
  %37 = load ptr, ptr %28, align 8
  store ptr %37, ptr %36, align 8
  %38 = getelementptr inbounds %struct.Lexer, ptr %29, i32 0, i32 8
  %39 = load ptr, ptr %25, align 8
  store ptr %39, ptr %38, align 8
  call void @llvm.memcpy.p0.p0.i64(ptr align 8 %35, ptr align 8 %29, i64 120, i1 false)
  %40 = getelementptr inbounds %struct.ParseContext_, ptr %27, i32 0, i32 5
  call void @lexer_init(ptr noundef %40)
  %41 = load ptr, ptr %28, align 8
  call void @advance(ptr noundef %41)
  %42 = load ptr, ptr %28, align 8
  call void @advance(ptr noundef %42)
  store ptr null, ptr %30, align 8
  br label %43

43:                                               ; preds = %164, %56, %2
  %44 = load ptr, ptr %28, align 8
  store ptr %44, ptr %22, align 8
  store i32 189, ptr %23, align 4
  %45 = load ptr, ptr %22, align 8
  %46 = getelementptr inbounds %struct.ParseContext_, ptr %45, i32 0, i32 1
  %47 = load i32, ptr %46, align 8
  %48 = load i32, ptr %23, align 4
  %49 = icmp eq i32 %47, %48
  %50 = xor i1 %49, true
  br i1 %50, label %51, label %165

51:                                               ; preds = %43
  %52 = load ptr, ptr %28, align 8
  %53 = call ptr @parse_top_level_statement(ptr noundef %52, ptr noundef null)
  store ptr %53, ptr %31, align 8
  %54 = load ptr, ptr %31, align 8
  %55 = icmp ne ptr %54, null
  br i1 %55, label %57, label %56

56:                                               ; preds = %51
  br label %43, !llvm.loop !11

57:                                               ; preds = %51
  %58 = load ptr, ptr %31, align 8
  store ptr %58, ptr %21, align 8
  %59 = load ptr, ptr %21, align 8
  %60 = icmp ne ptr %59, null
  br i1 %60, label %61, label %68

61:                                               ; preds = %57
  %62 = load ptr, ptr %21, align 8
  %63 = getelementptr inbounds %struct.Decl_, ptr %62, i32 0, i32 3
  %64 = load i64, ptr %63, align 8
  %65 = and i64 %64, 127
  %66 = trunc i64 %65 to i32
  %67 = icmp ne i32 %66, 0
  br label %68

68:                                               ; preds = %61, %57
  %69 = phi i1 [ true, %57 ], [ %67, %61 ]
  br i1 %69, label %81, label %70

70:                                               ; preds = %68
  %71 = load ptr, ptr %31, align 8
  store ptr %71, ptr %20, align 8
  %72 = load ptr, ptr %20, align 8
  %73 = getelementptr inbounds %struct.Decl_, ptr %72, i32 0, i32 3
  %74 = load i64, ptr %73, align 8
  %75 = and i64 %74, -128
  store i64 %75, ptr %73, align 8
  %76 = load ptr, ptr %20, align 8
  %77 = getelementptr inbounds %struct.Decl_, ptr %76, i32 0, i32 3
  %78 = load i64, ptr %77, align 8
  %79 = and i64 %78, -897
  %80 = or i64 %79, 256
  store i64 %80, ptr %77, align 8
  store ptr null, ptr %24, align 8
  br label %167

81:                                               ; preds = %68
  %82 = load ptr, ptr %31, align 8
  store ptr %30, ptr %12, align 8
  store ptr %82, ptr %13, align 8
  %83 = load ptr, ptr %13, align 8
  %84 = getelementptr inbounds %struct.Decl_, ptr %83, i32 0, i32 3
  %85 = load i64, ptr %84, align 8
  %86 = and i64 %85, 127
  %87 = trunc i64 %86 to i32
  %88 = icmp eq i32 %87, 18
  br i1 %88, label %89, label %140

89:                                               ; preds = %81
  %90 = load ptr, ptr %13, align 8
  %91 = getelementptr inbounds %struct.Decl_, ptr %90, i32 0, i32 11
  %92 = load ptr, ptr %91, align 8
  store ptr %92, ptr %14, align 8
  %93 = load ptr, ptr %14, align 8
  store ptr %93, ptr %7, align 8
  %94 = load ptr, ptr %7, align 8
  %95 = icmp ne ptr %94, null
  br i1 %95, label %97, label %96

96:                                               ; preds = %89
  store i32 0, ptr %6, align 4
  br label %102

97:                                               ; preds = %89
  %98 = load ptr, ptr %7, align 8
  store ptr %98, ptr %8, align 8
  %99 = load ptr, ptr %8, align 8
  %100 = getelementptr inbounds %struct.VHeader_, ptr %99, i64 -1
  %101 = load i32, ptr %100, align 4
  store i32 %101, ptr %6, align 4
  br label %102

102:                                              ; preds = %97, %96
  %103 = load i32, ptr %6, align 4
  store i32 %103, ptr %15, align 4
  store i32 0, ptr %16, align 4
  br label %104

104:                                              ; preds = %132, %102
  %105 = load i32, ptr %16, align 4
  %106 = load i32, ptr %15, align 4
  %107 = icmp ult i32 %105, %106
  br i1 %107, label %108, label %139

108:                                              ; preds = %104
  %109 = load ptr, ptr %14, align 8
  %110 = load i32, ptr %16, align 4
  %111 = zext i32 %110 to i64
  %112 = getelementptr inbounds ptr, ptr %109, i64 %111
  %113 = load ptr, ptr %112, align 8
  store ptr %113, ptr %17, align 8
  %114 = load ptr, ptr %12, align 8
  %115 = load ptr, ptr %114, align 8
  %116 = call ptr @expand_(ptr noundef %115, i64 noundef 8)
  store ptr %116, ptr %18, align 8
  %117 = load ptr, ptr %18, align 8
  %118 = load ptr, ptr %12, align 8
  store ptr %117, ptr %118, align 8
  %119 = load ptr, ptr %17, align 8
  %120 = load ptr, ptr %12, align 8
  %121 = load ptr, ptr %120, align 8
  %122 = load ptr, ptr %12, align 8
  %123 = load ptr, ptr %122, align 8
  store ptr %123, ptr %10, align 8
  %124 = load ptr, ptr %10, align 8
  %125 = icmp ne ptr %124, null
  br i1 %125, label %127, label %126

126:                                              ; preds = %108
  store i32 0, ptr %9, align 4
  br label %132

127:                                              ; preds = %108
  %128 = load ptr, ptr %10, align 8
  store ptr %128, ptr %11, align 8
  %129 = load ptr, ptr %11, align 8
  %130 = getelementptr inbounds %struct.VHeader_, ptr %129, i64 -1
  %131 = load i32, ptr %130, align 4
  store i32 %131, ptr %9, align 4
  br label %132

132:                                              ; preds = %127, %126
  %133 = load i32, ptr %9, align 4
  %134 = sub i32 %133, 1
  %135 = zext i32 %134 to i64
  %136 = getelementptr inbounds ptr, ptr %121, i64 %135
  store ptr %119, ptr %136, align 8
  %137 = load i32, ptr %16, align 4
  %138 = add i32 %137, 1
  store i32 %138, ptr %16, align 4
  br label %104, !llvm.loop !12

139:                                              ; preds = %104
  br label %164

140:                                              ; preds = %81
  %141 = load ptr, ptr %12, align 8
  %142 = load ptr, ptr %141, align 8
  %143 = call ptr @expand_(ptr noundef %142, i64 noundef 8)
  store ptr %143, ptr %19, align 8
  %144 = load ptr, ptr %19, align 8
  %145 = load ptr, ptr %12, align 8
  store ptr %144, ptr %145, align 8
  %146 = load ptr, ptr %13, align 8
  %147 = load ptr, ptr %12, align 8
  %148 = load ptr, ptr %147, align 8
  %149 = load ptr, ptr %12, align 8
  %150 = load ptr, ptr %149, align 8
  store ptr %150, ptr %4, align 8
  %151 = load ptr, ptr %4, align 8
  %152 = icmp ne ptr %151, null
  br i1 %152, label %154, label %153

153:                                              ; preds = %140
  store i32 0, ptr %3, align 4
  br label %159

154:                                              ; preds = %140
  %155 = load ptr, ptr %4, align 8
  store ptr %155, ptr %5, align 8
  %156 = load ptr, ptr %5, align 8
  %157 = getelementptr inbounds %struct.VHeader_, ptr %156, i64 -1
  %158 = load i32, ptr %157, align 4
  store i32 %158, ptr %3, align 4
  br label %159

159:                                              ; preds = %154, %153
  %160 = load i32, ptr %3, align 4
  %161 = sub i32 %160, 1
  %162 = zext i32 %161 to i64
  %163 = getelementptr inbounds ptr, ptr %148, i64 %162
  store ptr %146, ptr %163, align 8
  br label %164

164:                                              ; preds = %159, %139
  br label %43, !llvm.loop !11

165:                                              ; preds = %43
  %166 = load ptr, ptr %30, align 8
  store ptr %166, ptr %24, align 8
  br label %167

167:                                              ; preds = %165, %70
  %168 = load ptr, ptr %24, align 8
  ret ptr %168
}