; Function Attrs: nounwind uwtable
define dso_local ptr @parse_include_file(ptr noundef %0, ptr noundef %1) local_unnamed_addr #0 {
  %3 = alloca %struct.ParseContext_, align 8
  call void @llvm.memset.p0.i64(ptr noundef nonnull align 8 dereferenceable(192) %3, i8 0, i64 64, i1 false)
  %4 = getelementptr inbounds i8, ptr %3, i64 64
  store ptr %1, ptr %4, align 8
  %5 = getelementptr inbounds i8, ptr %3, i64 72
  %.sroa.3.0..sroa_idx = getelementptr inbounds i8, ptr %3, i64 80
  call void @llvm.memset.p0.i64(ptr noundef nonnull align 8 dereferenceable(48) %.sroa.3.0..sroa_idx, i8 0, i64 48, i1 false)
  %.sroa.4.0..sroa_idx = getelementptr inbounds i8, ptr %3, i64 136
  call void @llvm.memset.p0.i64(ptr noundef nonnull align 8 dereferenceable(56) %.sroa.4.0..sroa_idx, i8 0, i64 56, i1 false)
  store ptr %3, ptr %5, align 8
  %.sroa.34.0..sroa_idx = getelementptr inbounds i8, ptr %3, i64 128
  store ptr %0, ptr %.sroa.34.0..sroa_idx, align 8
  call void @lexer_init(ptr noundef nonnull %5) #10
  %6 = getelementptr inbounds i8, ptr %3, i64 40
  %7 = load i32, ptr %6, align 8
  %8 = icmp eq i32 %7, 189
  br i1 %8, label %.outer.preheader, label %9

9:                                                ; preds = %2
  %10 = getelementptr inbounds i8, ptr %3, i64 184
  %11 = load i32, ptr %10, align 8
  store i32 %11, ptr %6, align 8
  call void @llvm.memcpy.p0.p0.i64(ptr noundef nonnull align 8 dereferenceable(40) %3, ptr noundef nonnull align 8 dereferenceable(40) %.sroa.4.0..sroa_idx, i64 40, i1 false)
  %12 = getelementptr inbounds i8, ptr %3, i64 56
  %13 = getelementptr inbounds i8, ptr %3, i64 48
  %14 = load i64, ptr %13, align 8
  store i64 %14, ptr %12, align 8
  %15 = getelementptr inbounds i8, ptr %3, i64 176
  %16 = load i64, ptr %15, align 8
  store i64 %16, ptr %13, align 8
  %17 = call zeroext i1 @lexer_next_token(ptr noundef nonnull %5) #10
  br i1 %17, label %advance.exit, label %18

18:                                               ; preds = %9
  call void @exit_compiler(i32 noundef 1) #11
  unreachable

advance.exit:                                     ; preds = %9
  %.pr = load i32, ptr %6, align 8
  %19 = icmp eq i32 %.pr, 189
  br i1 %19, label %.outer.preheader, label %20

20:                                               ; preds = %advance.exit
  %21 = load i32, ptr %10, align 8
  store i32 %21, ptr %6, align 8
  call void @llvm.memcpy.p0.p0.i64(ptr noundef nonnull align 8 dereferenceable(40) %3, ptr noundef nonnull align 8 dereferenceable(40) %.sroa.4.0..sroa_idx, i64 40, i1 false)
  %22 = load i64, ptr %13, align 8
  store i64 %22, ptr %12, align 8
  %23 = load i64, ptr %15, align 8
  store i64 %23, ptr %13, align 8
  %24 = call zeroext i1 @lexer_next_token(ptr noundef nonnull %5) #10
  br i1 %24, label %.outer.preheader, label %25

.outer.preheader:                                 ; preds = %2, %advance.exit, %20
  br label %.outer

25:                                               ; preds = %20
  call void @exit_compiler(i32 noundef 1) #11
  unreachable

.outer:                                           ; preds = %.outer.preheader, %.loopexit
  %.061.ph = phi ptr [ %.2, %.loopexit ], [ null, %.outer.preheader ]
  br label %26

26:                                               ; preds = %.outer, %28
  %27 = load i32, ptr %6, align 8
  %.not = icmp eq i32 %27, 189
  br i1 %.not, label %.loopexit79, label %28

28:                                               ; preds = %26
  %29 = call ptr @parse_top_level_statement(ptr noundef nonnull %3, ptr noundef null) #10
  %.not66 = icmp eq ptr %29, null
  br i1 %.not66, label %26, label %30, !llvm.loop !11

30:                                               ; preds = %28
  %31 = getelementptr inbounds i8, ptr %29, i64 24
  %32 = load i64, ptr %31, align 8
  %33 = and i64 %32, 127
  switch i64 %33, label %75 [
    i64 0, label %34
    i64 18, label %38
  ]

34:                                               ; preds = %30
  %35 = getelementptr inbounds i8, ptr %29, i64 24
  %36 = and i64 %32, -1024
  %37 = or disjoint i64 %36, 256
  store i64 %37, ptr %35, align 8
  br label %.loopexit79

38:                                               ; preds = %30
  %39 = getelementptr inbounds i8, ptr %29, i64 80
  %40 = load ptr, ptr %39, align 8
  %.not69 = icmp eq ptr %40, null
  br i1 %.not69, label %.loopexit, label %41

41:                                               ; preds = %38
  %42 = getelementptr inbounds i8, ptr %40, i64 -8
  %43 = load i32, ptr %42, align 4
  %.not85 = icmp eq i32 %43, 0
  br i1 %.not85, label %.loopexit, label %.lr.ph.preheader

.lr.ph.preheader:                                 ; preds = %41
  %wide.trip.count = zext i32 %43 to i64
  br label %.lr.ph

.lr.ph:                                           ; preds = %.lr.ph.preheader, %69
  %indvars.iv = phi i64 [ 0, %.lr.ph.preheader ], [ %indvars.iv.next, %69 ]
  %.183 = phi ptr [ %.061.ph, %.lr.ph.preheader ], [ %72, %69 ]
  %44 = getelementptr inbounds ptr, ptr %40, i64 %indvars.iv
  %45 = load ptr, ptr %44, align 8
  %.not.i = icmp eq ptr %.183, null
  br i1 %.not.i, label %46, label %49

46:                                               ; preds = %.lr.ph
  %47 = call ptr @calloc_arena(i64 noundef 72) #10
  %48 = getelementptr inbounds i8, ptr %47, i64 4
  store i32 8, ptr %48, align 4
  br label %51

49:                                               ; preds = %.lr.ph
  %50 = getelementptr inbounds i8, ptr %.183, i64 -8
  %.phi.trans.insert.i = getelementptr inbounds i8, ptr %.183, i64 -4
  %.pre.i = load i32, ptr %.phi.trans.insert.i, align 4
  br label %51

51:                                               ; preds = %49, %46
  %52 = phi i32 [ %.pre.i, %49 ], [ 8, %46 ]
  %.0.i = phi ptr [ %50, %49 ], [ %47, %46 ]
  %53 = load i32, ptr %.0.i, align 4
  %54 = icmp eq i32 %53, %52
  br i1 %54, label %55, label %69

55:                                               ; preds = %51
  %56 = getelementptr inbounds i8, ptr %.0.i, i64 4
  %57 = shl i32 %52, 1
  %58 = zext i32 %57 to i64
  %59 = shl nuw nsw i64 %58, 3
  %60 = or disjoint i64 %59, 8
  %61 = call ptr @calloc_arena(i64 noundef %60) #10
  %62 = getelementptr inbounds i8, ptr %61, i64 4
  store i32 %57, ptr %62, align 4
  %63 = load i32, ptr %56, align 4
  %64 = zext i32 %63 to i64
  %65 = shl nuw nsw i64 %64, 3
  %66 = add nuw nsw i64 %65, 8
  call void @llvm.memcpy.p0.p0.i64(ptr noundef nonnull align 4 dereferenceable(1) %61, ptr noundef nonnull align 4 dereferenceable(1) %.0.i, i64 %66, i1 false)
  %67 = load i32, ptr %62, align 4
  %68 = shl i32 %67, 1
  store i32 %68, ptr %62, align 4
  %.pre18.i = load i32, ptr %61, align 4
  br label %69

69:                                               ; preds = %51, %55
  %70 = phi i32 [ %.pre18.i, %55 ], [ %53, %51 ]
  %.1.i = phi ptr [ %61, %55 ], [ %.0.i, %51 ]
  %71 = add i32 %70, 1
  store i32 %71, ptr %.1.i, align 4
  %72 = getelementptr inbounds i8, ptr %.1.i, i64 8
  %73 = zext i32 %70 to i64
  %74 = getelementptr inbounds ptr, ptr %72, i64 %73
  store ptr %45, ptr %74, align 8
  %indvars.iv.next = add nuw nsw i64 %indvars.iv, 1
  %exitcond.not = icmp eq i64 %indvars.iv.next, %wide.trip.count
  br i1 %exitcond.not, label %.loopexit, label %.lr.ph, !llvm.loop !12

75:                                               ; preds = %30
  %.not.i72 = icmp eq ptr %.061.ph, null
  br i1 %.not.i72, label %76, label %79

76:                                               ; preds = %75
  %77 = call ptr @calloc_arena(i64 noundef 72) #10
  %78 = getelementptr inbounds i8, ptr %77, i64 4
  store i32 8, ptr %78, align 4
  br label %81

79:                                               ; preds = %75
  %80 = getelementptr inbounds i8, ptr %.061.ph, i64 -8
  %.phi.trans.insert.i73 = getelementptr inbounds i8, ptr %.061.ph, i64 -4
  %.pre.i74 = load i32, ptr %.phi.trans.insert.i73, align 4
  br label %81

81:                                               ; preds = %79, %76
  %82 = phi i32 [ %.pre.i74, %79 ], [ 8, %76 ]
  %.0.i75 = phi ptr [ %80, %79 ], [ %77, %76 ]
  %83 = load i32, ptr %.0.i75, align 4
  %84 = icmp eq i32 %83, %82
  br i1 %84, label %85, label %99

85:                                               ; preds = %81
  %86 = getelementptr inbounds i8, ptr %.0.i75, i64 4
  %87 = shl i32 %82, 1
  %88 = zext i32 %87 to i64
  %89 = shl nuw nsw i64 %88, 3
  %90 = or disjoint i64 %89, 8
  %91 = call ptr @calloc_arena(i64 noundef %90) #10
  %92 = getelementptr inbounds i8, ptr %91, i64 4
  store i32 %87, ptr %92, align 4
  %93 = load i32, ptr %86, align 4
  %94 = zext i32 %93 to i64
  %95 = shl nuw nsw i64 %94, 3
  %96 = add nuw nsw i64 %95, 8
  call void @llvm.memcpy.p0.p0.i64(ptr noundef nonnull align 4 dereferenceable(1) %91, ptr noundef nonnull align 4 dereferenceable(1) %.0.i75, i64 %96, i1 false)
  %97 = load i32, ptr %92, align 4
  %98 = shl i32 %97, 1
  store i32 %98, ptr %92, align 4
  %.pre18.i77 = load i32, ptr %91, align 4
  br label %99

99:                                               ; preds = %81, %85
  %100 = phi i32 [ %.pre18.i77, %85 ], [ %83, %81 ]
  %.1.i76 = phi ptr [ %91, %85 ], [ %.0.i75, %81 ]
  %101 = add i32 %100, 1
  store i32 %101, ptr %.1.i76, align 4
  %102 = getelementptr inbounds i8, ptr %.1.i76, i64 8
  %103 = zext i32 %100 to i64
  %104 = getelementptr inbounds ptr, ptr %102, i64 %103
  store ptr %29, ptr %104, align 8
  br label %.loopexit

.loopexit:                                        ; preds = %69, %38, %41, %99
  %.2 = phi ptr [ %102, %99 ], [ %.061.ph, %41 ], [ %.061.ph, %38 ], [ %72, %69 ]
  br label %.outer, !llvm.loop !11

.loopexit79:                                      ; preds = %26, %34
  %.054 = phi ptr [ null, %34 ], [ %.061.ph, %26 ]
  ret ptr %.054
}